target datalayout = "e-m:e-p270:32:32-p271:32:32-p272:64:64-i64:64-i128:128-f80:128-n8:16:32:64-S128"
target triple = "x86_64-unknown-linux-gnu"

%struct.napi_env__ = type <{ ptr, ptr, %"class.v8::Global", %"class.v8::Global.0", %"class.v8impl::RefTracker", %"class.v8impl::RefTracker", %"class.std::unordered_set", %struct.napi_extended_error_info, i32, i32, i32, [4 x i8], ptr, i32, i8, [3 x i8] }>
%"class.v8::Global" = type { %"class.v8::PersistentBase" }
%"class.v8::PersistentBase" = type { %"class.v8::IndirectHandleBase" }
%"class.v8::IndirectHandleBase" = type { ptr }
%"class.v8::Global.0" = type { %"class.v8::PersistentBase.1" }
%"class.v8::PersistentBase.1" = type { %"class.v8::IndirectHandleBase" }
%"class.v8impl::RefTracker" = type { ptr, ptr, ptr }
%"class.std::unordered_set" = type { %"class.std::_Hashtable" }
%"class.std::_Hashtable" = type { ptr, i64, %"struct.std::__detail::_Hash_node_base", i64, %"struct.std::__detail::_Prime_rehash_policy", ptr }
%"struct.std::__detail::_Hash_node_base" = type { ptr }
%"struct.std::__detail::_Prime_rehash_policy" = type { float, i64 }
%struct.napi_extended_error_info = type { ptr, ptr, i32, i32 }
%"class.v8::Local" = type { %"class.v8::LocalBase" }
%"class.v8::LocalBase" = type { %"class.v8::IndirectHandleBase" }
%"class.v8::Local.6" = type { %"class.v8::LocalBase.7" }
%"class.v8::LocalBase.7" = type { %"class.v8::IndirectHandleBase" }
%"class.v8::Local.45" = type { %"class.v8::LocalBase.46" }
%"class.v8::LocalBase.46" = type { %"class.v8::IndirectHandleBase" }

; Function Attrs: mustprogress nounwind uwtable
define linkonce_odr dso_local noundef i32 @_Z21napi_clear_last_errorP10napi_env__(ptr noundef %env) #4 comdat {
entry:
  %env.addr = alloca ptr, align 8
  store ptr %env, ptr %env.addr, align 8
  %0 = load ptr, ptr %env.addr, align 8
  %last_error = getelementptr inbounds %struct.napi_env__, ptr %0, i32 0, i32 7
  %error_code = getelementptr inbounds %struct.napi_extended_error_info, ptr %last_error, i32 0, i32 3
  store i32 0, ptr %error_code, align 4
  %1 = load ptr, ptr %env.addr, align 8
  %last_error1 = getelementptr inbounds %struct.napi_env__, ptr %1, i32 0, i32 7
  %engine_error_code = getelementptr inbounds %struct.napi_extended_error_info, ptr %last_error1, i32 0, i32 2
  store i32 0, ptr %engine_error_code, align 8
  %2 = load ptr, ptr %env.addr, align 8
  %last_error2 = getelementptr inbounds %struct.napi_env__, ptr %2, i32 0, i32 7
  %engine_reserved = getelementptr inbounds %struct.napi_extended_error_info, ptr %last_error2, i32 0, i32 1
  store ptr null, ptr %engine_reserved, align 8
  %3 = load ptr, ptr %env.addr, align 8
  %last_error3 = getelementptr inbounds %struct.napi_env__, ptr %3, i32 0, i32 7
  %error_message = getelementptr inbounds %struct.napi_extended_error_info, ptr %last_error3, i32 0, i32 0
  store ptr null, ptr %error_message, align 8
  ret i32 0
}

; Function Attrs: mustprogress nounwind uwtable
define linkonce_odr dso_local ptr @_ZN6v8impl23V8LocalValueFromJsValueEP12napi_value__(ptr noundef %v) #4 comdat {
entry:
  %this.addr.i.i = alloca ptr, align 8
  %this.addr.i3 = alloca ptr, align 8
  %this.addr.i = alloca ptr, align 8
  %retval = alloca %"class.v8::Local", align 8
  %v.addr = alloca ptr, align 8
  store ptr %v, ptr %v.addr, align 8
  store ptr %retval, ptr %this.addr.i, align 8
  %this1.i = load ptr, ptr %this.addr.i, align 8
  store ptr %this1.i, ptr %this.addr.i3, align 8
  %this1.i4 = load ptr, ptr %this.addr.i3, align 8
  store ptr %this1.i4, ptr %this.addr.i.i, align 8
  %this1.i.i = load ptr, ptr %this.addr.i.i, align 8
  store ptr null, ptr %this1.i.i, align 8
  call void @llvm.memcpy.p0.p0.i64(ptr align 1 %retval, ptr align 8 %v.addr, i64 8, i1 false)
  %coerce.dive = getelementptr inbounds %"class.v8::Local", ptr %retval, i32 0, i32 0
  %coerce.dive1 = getelementptr inbounds %"class.v8::LocalBase", ptr %coerce.dive, i32 0, i32 0
  %coerce.dive2 = getelementptr inbounds %"class.v8::IndirectHandleBase", ptr %coerce.dive1, i32 0, i32 0
  %0 = load ptr, ptr %coerce.dive2, align 8
  ret ptr %0
}

; Function Attrs: mustprogress nounwind uwtable
define linkonce_odr dso_local noundef ptr @_ZN6v8impl23JsValueFromV8LocalValueEN2v85LocalINS0_5ValueEEE(ptr %local.coerce) #4 comdat {
entry:
  %slot.addr.i = alloca ptr, align 8
  %this.addr.i.i3 = alloca ptr, align 8
  %this.addr.i4 = alloca ptr, align 8
  %this.addr.i.i = alloca ptr, align 8
  %this.addr.i = alloca ptr, align 8
  %local = alloca %"class.v8::Local", align 8
  %coerce.dive = getelementptr inbounds %"class.v8::Local", ptr %local, i32 0, i32 0
  %coerce.dive1 = getelementptr inbounds %"class.v8::LocalBase", ptr %coerce.dive, i32 0, i32 0
  %coerce.dive2 = getelementptr inbounds %"class.v8::IndirectHandleBase", ptr %coerce.dive1, i32 0, i32 0
  store ptr %local.coerce, ptr %coerce.dive2, align 8
  store ptr %local, ptr %this.addr.i, align 8
  %this1.i = load ptr, ptr %this.addr.i, align 8
  store ptr %this1.i, ptr %this.addr.i.i, align 8
  %this1.i.i = load ptr, ptr %this.addr.i.i, align 8
  store ptr %this1.i.i, ptr %this.addr.i4, align 8
  %this1.i5 = load ptr, ptr %this.addr.i4, align 8
  store ptr %this1.i5, ptr %this.addr.i.i3, align 8
  %this1.i.i6 = load ptr, ptr %this.addr.i.i3, align 8
  %0 = load ptr, ptr %this1.i.i6, align 8
  store ptr %0, ptr %slot.addr.i, align 8
  %1 = load ptr, ptr %slot.addr.i, align 8
  ret ptr %1
}

; Function Attrs: mustprogress nounwind uwtable
define linkonce_odr dso_local noundef i32 @_Z19napi_set_last_errorP10napi_env__11napi_statusjPv(ptr noundef %env, i32 noundef %error_code, i32 noundef %engine_error_code, ptr noundef %engine_reserved) #4 comdat {
entry:
  %env.addr = alloca ptr, align 8
  %error_code.addr = alloca i32, align 4
  %engine_error_code.addr = alloca i32, align 4
  %engine_reserved.addr = alloca ptr, align 8
  store ptr %env, ptr %env.addr, align 8
  store i32 %error_code, ptr %error_code.addr, align 4
  store i32 %engine_error_code, ptr %engine_error_code.addr, align 4
  store ptr %engine_reserved, ptr %engine_reserved.addr, align 8
  %0 = load i32, ptr %error_code.addr, align 4
  %1 = load ptr, ptr %env.addr, align 8
  %last_error = getelementptr inbounds %struct.napi_env__, ptr %1, i32 0, i32 7
  %error_code1 = getelementptr inbounds %struct.napi_extended_error_info, ptr %last_error, i32 0, i32 3
  store i32 %0, ptr %error_code1, align 4
  %2 = load i32, ptr %engine_error_code.addr, align 4
  %3 = load ptr, ptr %env.addr, align 8
  %last_error2 = getelementptr inbounds %struct.napi_env__, ptr %3, i32 0, i32 7
  %engine_error_code3 = getelementptr inbounds %struct.napi_extended_error_info, ptr %last_error2, i32 0, i32 2
  store i32 %2, ptr %engine_error_code3, align 8
  %4 = load ptr, ptr %engine_reserved.addr, align 8
  %5 = load ptr, ptr %env.addr, align 8
  %last_error4 = getelementptr inbounds %struct.napi_env__, ptr %5, i32 0, i32 7
  %engine_reserved5 = getelementptr inbounds %struct.napi_extended_error_info, ptr %last_error4, i32 0, i32 1
  store ptr %4, ptr %engine_reserved5, align 8
  %6 = load i32, ptr %error_code.addr, align 4
  ret i32 %6
}

; Function Attrs: mustprogress nounwind uwtable
define linkonce_odr dso_local void @_ZN10napi_env__13CheckGCAccessEv(ptr noundef nonnull align 8 dereferenceable(189) %this) #4 comdat align 2 {
entry:
  %this.addr = alloca ptr, align 8
  store ptr %this, ptr %this.addr, align 8
  %this1 = load ptr, ptr %this.addr, align 8
  %module_api_version = getelementptr inbounds %struct.napi_env__, ptr %this1, i32 0, i32 13
  %0 = load i32, ptr %module_api_version, align 8
  %cmp = icmp eq i32 %0, 2147483647
  br i1 %cmp, label %land.lhs.true, label %if.end

land.lhs.true:                                    ; preds = %entry
  %in_gc_finalizer = getelementptr inbounds %struct.napi_env__, ptr %this1, i32 0, i32 14
  %1 = load i8, ptr %in_gc_finalizer, align 4
  %tobool = trunc i8 %1 to i1
  br i1 %tobool, label %if.then, label %if.end

if.then:                                          ; preds = %land.lhs.true
  call void @_ZN6v8impl12OnFatalErrorEPKcS1_(ptr noundef null, ptr noundef @.str.41) #17
  unreachable

if.end:                                           ; preds = %land.lhs.true, %entry
  ret void
}

; Function Attrs: mustprogress nounwind uwtable
define dso_local i32 @napi_create_symbol(ptr noundef %env, ptr noundef %description, ptr noundef %result) #4 {
entry:
  %this.addr.i103 = alloca ptr, align 8
  %other.addr.i104 = alloca ptr, align 8
  %this.addr.i100 = alloca ptr, align 8
  %other.addr.i101 = alloca ptr, align 8
  %retval.i98 = alloca %"class.v8::Local.6", align 8
  %that.i99 = alloca %"class.v8::Local", align 8
  %ref.tmp.i = alloca %"class.v8::LocalBase.7", align 8
  %this.addr.i95 = alloca ptr, align 8
  %other.addr.i96 = alloca ptr, align 8
  %this.addr.i93 = alloca ptr, align 8
  %other.addr.i = alloca ptr, align 8
  %slot.addr.i = alloca ptr, align 8
  %this.addr.i.i89 = alloca ptr, align 8
  %this.addr.i90 = alloca ptr, align 8
  %heap_object_ptr.addr.i83 = alloca i64, align 8
  %offset.addr.i84 = alloca i32, align 4
  %addr.i85 = alloca i64, align 8
  %heap_object_ptr.addr.i80 = alloca i64, align 8
  %offset.addr.i81 = alloca i32, align 4
  %addr.i = alloca i64, align 8
  %heap_object_ptr.addr.i = alloca i64, align 8
  %offset.addr.i = alloca i32, align 4
  %obj.addr.i = alloca i64, align 8
  %map.i = alloca i64, align 8
  %value.addr.i = alloca i64, align 8
  %value.addr.i.i = alloca ptr, align 8
  %retval.i74 = alloca i1, align 1
  %this.addr.i75 = alloca ptr, align 8
  %obj.i = alloca i64, align 8
  %this.addr.i.i = alloca ptr, align 8
  %this.addr.i72 = alloca ptr, align 8
  %retval.i = alloca %"class.v8::Local.6", align 8
  %this.addr.i69 = alloca ptr, align 8
  %agg.tmp.i = alloca %"class.v8::Local", align 8
  %this.addr.i66 = alloca ptr, align 8
  %that.i63 = alloca %"class.v8::Local.45", align 8
  %this.addr.i64 = alloca ptr, align 8
  %that.i = alloca %"class.v8::Local.45", align 8
  %this.addr.i62 = alloca ptr, align 8
  %this.addr.i60 = alloca ptr, align 8
  %this.addr.i = alloca ptr, align 8
  %retval = alloca i32, align 4
  %env.addr = alloca ptr, align 8
  %description.addr = alloca ptr, align 8
  %result.addr = alloca ptr, align 8
  %isolate = alloca ptr, align 8
  %agg.tmp = alloca %"class.v8::Local", align 8
  %agg.tmp11 = alloca %"class.v8::Local.45", align 8
  %agg.tmp12 = alloca %"class.v8::Local.6", align 8
  %desc = alloca %"class.v8::Local", align 8
  %agg.tmp37 = alloca %"class.v8::Local", align 8
  %agg.tmp38 = alloca %"class.v8::Local.45", align 8
  %agg.tmp39 = alloca %"class.v8::Local.6", align 8
  store ptr %env, ptr %env.addr, align 8
  store ptr %description, ptr %description.addr, align 8
  store ptr %result, ptr %result.addr, align 8
  br label %do.body

do.body:                                          ; preds = %entry
  br label %do.body1

do.body1:                                         ; preds = %do.body
  %0 = load ptr, ptr %env.addr, align 8
  %cmp = icmp eq ptr %0, null
  br i1 %cmp, label %if.then, label %if.end

if.then:                                          ; preds = %do.body1
  store i32 1, ptr %retval, align 4
  br label %return

if.end:                                           ; preds = %do.body1
  br label %do.end

do.end:                                           ; preds = %if.end
  %1 = load ptr, ptr %env.addr, align 8
  call void @_ZN10napi_env__13CheckGCAccessEv(ptr noundef nonnull align 8 dereferenceable(189) %1)
  br label %do.end2

do.end2:                                          ; preds = %do.end
  br label %do.body3

do.body3:                                         ; preds = %do.end2
  %2 = load ptr, ptr %result.addr, align 8
  %cmp4 = icmp ne ptr %2, null
  br i1 %cmp4, label %if.end6, label %if.then5

if.then5:                                         ; preds = %do.body3
  %3 = load ptr, ptr %env.addr, align 8
  %call = call noundef i32 @_Z19napi_set_last_errorP10napi_env__11napi_statusjPv(ptr noundef %3, i32 noundef 1, i32 noundef 0, ptr noundef null)
  store i32 %call, ptr %retval, align 4
  br label %return

if.end6:                                          ; preds = %do.body3
  br label %do.end7

do.end7:                                          ; preds = %if.end6
  %4 = load ptr, ptr %env.addr, align 8
  %isolate8 = getelementptr inbounds %struct.napi_env__, ptr %4, i32 0, i32 1
  %5 = load ptr, ptr %isolate8, align 8
  store ptr %5, ptr %isolate, align 8
  %6 = load ptr, ptr %description.addr, align 8
  %cmp9 = icmp eq ptr %6, null
  br i1 %cmp9, label %if.then10, label %if.else

if.then10:                                        ; preds = %do.end7
  %7 = load ptr, ptr %isolate, align 8
  call void @llvm.memset.p0.i64(ptr align 8 %agg.tmp12, i8 0, i64 8, i1 false)
  store ptr %agg.tmp12, ptr %this.addr.i, align 8
  %this1.i = load ptr, ptr %this.addr.i, align 8
  store ptr %this1.i, ptr %this.addr.i72, align 8
  %this1.i73 = load ptr, ptr %this.addr.i72, align 8
  store ptr %this1.i73, ptr %this.addr.i.i, align 8
  %this1.i.i = load ptr, ptr %this.addr.i.i, align 8
  store ptr null, ptr %this1.i.i, align 8
  %coerce.dive = getelementptr inbounds %"class.v8::Local.6", ptr %agg.tmp12, i32 0, i32 0
  %coerce.dive13 = getelementptr inbounds %"class.v8::LocalBase.7", ptr %coerce.dive, i32 0, i32 0
  %coerce.dive14 = getelementptr inbounds %"class.v8::IndirectHandleBase", ptr %coerce.dive13, i32 0, i32 0
  %8 = load ptr, ptr %coerce.dive14, align 8
  %call15 = call ptr @_ZN2v86Symbol3NewEPNS_7IsolateENS_5LocalINS_6StringEEE(ptr noundef %7, ptr %8)
  %coerce.dive16 = getelementptr inbounds %"class.v8::Local.45", ptr %agg.tmp11, i32 0, i32 0
  %coerce.dive17 = getelementptr inbounds %"class.v8::LocalBase.46", ptr %coerce.dive16, i32 0, i32 0
  %coerce.dive18 = getelementptr inbounds %"class.v8::IndirectHandleBase", ptr %coerce.dive17, i32 0, i32 0
  store ptr %call15, ptr %coerce.dive18, align 8
  %coerce.dive19 = getelementptr inbounds %"class.v8::Local.45", ptr %agg.tmp11, i32 0, i32 0
  %coerce.dive20 = getelementptr inbounds %"class.v8::LocalBase.46", ptr %coerce.dive19, i32 0, i32 0
  %coerce.dive21 = getelementptr inbounds %"class.v8::IndirectHandleBase", ptr %coerce.dive20, i32 0, i32 0
  %9 = load ptr, ptr %coerce.dive21, align 8
  store ptr %9, ptr %that.i, align 8
  store ptr %agg.tmp, ptr %this.addr.i62, align 8
  %this3.i = load ptr, ptr %this.addr.i62, align 8
  store ptr %this3.i, ptr %this.addr.i95, align 8
  store ptr %that.i, ptr %other.addr.i96, align 8
  %this1.i97 = load ptr, ptr %this.addr.i95, align 8
  %10 = load ptr, ptr %other.addr.i96, align 8
  call void @llvm.memcpy.p0.p0.i64(ptr align 8 %this1.i97, ptr align 8 %10, i64 8, i1 false)
  %coerce.dive22 = getelementptr inbounds %"class.v8::Local", ptr %agg.tmp, i32 0, i32 0
  %coerce.dive23 = getelementptr inbounds %"class.v8::LocalBase", ptr %coerce.dive22, i32 0, i32 0
  %coerce.dive24 = getelementptr inbounds %"class.v8::IndirectHandleBase", ptr %coerce.dive23, i32 0, i32 0
  %11 = load ptr, ptr %coerce.dive24, align 8
  %call25 = call noundef ptr @_ZN6v8impl23JsValueFromV8LocalValueEN2v85LocalINS0_5ValueEEE(ptr %11)
  %12 = load ptr, ptr %result.addr, align 8
  store ptr %call25, ptr %12, align 8
  br label %if.end58

if.else:                                          ; preds = %do.end7
  %13 = load ptr, ptr %description.addr, align 8
  %call26 = call ptr @_ZN6v8impl23V8LocalValueFromJsValueEP12napi_value__(ptr noundef %13)
  %coerce.dive27 = getelementptr inbounds %"class.v8::Local", ptr %desc, i32 0, i32 0
  %coerce.dive28 = getelementptr inbounds %"class.v8::LocalBase", ptr %coerce.dive27, i32 0, i32 0
  %coerce.dive29 = getelementptr inbounds %"class.v8::IndirectHandleBase", ptr %coerce.dive28, i32 0, i32 0
  store ptr %call26, ptr %coerce.dive29, align 8
  br label %do.body30

do.body30:                                        ; preds = %if.else
  store ptr %desc, ptr %this.addr.i60, align 8
  %this1.i61 = load ptr, ptr %this.addr.i60, align 8
  store ptr %this1.i61, ptr %this.addr.i90, align 8
  %this1.i91 = load ptr, ptr %this.addr.i90, align 8
  store ptr %this1.i91, ptr %this.addr.i.i89, align 8
  %this1.i.i92 = load ptr, ptr %this.addr.i.i89, align 8
  %14 = load ptr, ptr %this1.i.i92, align 8
  store ptr %14, ptr %slot.addr.i, align 8
  %15 = load ptr, ptr %slot.addr.i, align 8
  store ptr %15, ptr %this.addr.i66, align 8
  %this1.i67 = load ptr, ptr %this.addr.i66, align 8
  store ptr %this1.i67, ptr %this.addr.i75, align 8
  %this1.i76 = load ptr, ptr %this.addr.i75, align 8
  store ptr %this1.i76, ptr %value.addr.i.i, align 8
  %16 = load ptr, ptr %value.addr.i.i, align 8
  %17 = load i64, ptr %16, align 8
  store i64 %17, ptr %obj.i, align 8
  %18 = load i64, ptr %obj.i, align 8
  store i64 %18, ptr %value.addr.i, align 8
  %19 = load i64, ptr %value.addr.i, align 8
  %and.i = and i64 %19, 3
  %cmp.i77 = icmp eq i64 %and.i, 1
  br i1 %cmp.i77, label %if.end.i, label %if.then.i

if.then.i:                                        ; preds = %do.body30
  store i1 false, ptr %retval.i74, align 1
  br label %_ZNK2v85Value13QuickIsStringEv.exit

if.end.i:                                         ; preds = %do.body30
  %20 = load i64, ptr %obj.i, align 8
  store i64 %20, ptr %obj.addr.i, align 8
  %21 = load i64, ptr %obj.addr.i, align 8
  store i64 %21, ptr %heap_object_ptr.addr.i, align 8
  store i32 0, ptr %offset.addr.i, align 4
  %22 = load i64, ptr %heap_object_ptr.addr.i, align 8
  %23 = load i32, ptr %offset.addr.i, align 4
  store i64 %22, ptr %heap_object_ptr.addr.i83, align 8
  store i32 %23, ptr %offset.addr.i84, align 4
  %24 = load i64, ptr %heap_object_ptr.addr.i83, align 8
  %25 = load i32, ptr %offset.addr.i84, align 4
  %conv.i86 = sext i32 %25 to i64
  %add.i87 = add i64 %24, %conv.i86
  %sub.i88 = sub i64 %add.i87, 1
  store i64 %sub.i88, ptr %addr.i85, align 8
  %26 = load i64, ptr %addr.i85, align 8
  %27 = inttoptr i64 %26 to ptr
  %28 = load i64, ptr %27, align 8
  store i64 %28, ptr %map.i, align 8
  %29 = load i64, ptr %map.i, align 8
  store i64 %29, ptr %heap_object_ptr.addr.i80, align 8
  store i32 12, ptr %offset.addr.i81, align 4
  %30 = load i64, ptr %heap_object_ptr.addr.i80, align 8
  %31 = load i32, ptr %offset.addr.i81, align 4
  %conv.i82 = sext i32 %31 to i64
  %add.i = add i64 %30, %conv.i82
  %sub.i = sub i64 %add.i, 1
  store i64 %sub.i, ptr %addr.i, align 8
  %32 = load i64, ptr %addr.i, align 8
  %33 = inttoptr i64 %32 to ptr
  %34 = load i16, ptr %33, align 2
  %conv.i = zext i16 %34 to i32
  %cmp.i = icmp slt i32 %conv.i, 128
  store i1 %cmp.i, ptr %retval.i74, align 1
  br label %_ZNK2v85Value13QuickIsStringEv.exit

_ZNK2v85Value13QuickIsStringEv.exit:              ; preds = %if.end.i, %if.then.i
  %35 = load i1, ptr %retval.i74, align 1
  br i1 %35, label %if.end35, label %if.then33

if.then33:                                        ; preds = %_ZNK2v85Value13QuickIsStringEv.exit
  %36 = load ptr, ptr %env.addr, align 8
  %call34 = call noundef i32 @_Z19napi_set_last_errorP10napi_env__11napi_statusjPv(ptr noundef %36, i32 noundef 3, i32 noundef 0, ptr noundef null)
  store i32 %call34, ptr %retval, align 4
  br label %return

if.end35:                                         ; preds = %_ZNK2v85Value13QuickIsStringEv.exit
  br label %do.end36

do.end36:                                         ; preds = %if.end35
  %37 = load ptr, ptr %isolate, align 8
  store ptr %desc, ptr %this.addr.i69, align 8
  %this1.i70 = load ptr, ptr %this.addr.i69, align 8
  call void @llvm.memcpy.p0.p0.i64(ptr align 8 %agg.tmp.i, ptr align 8 %this1.i70, i64 8, i1 false)
  %38 = load ptr, ptr %agg.tmp.i, align 8
  store ptr %38, ptr %that.i99, align 8
  store ptr %ref.tmp.i, ptr %this.addr.i100, align 8
  store ptr %that.i99, ptr %other.addr.i101, align 8
  %this1.i102 = load ptr, ptr %this.addr.i100, align 8
  %39 = load ptr, ptr %other.addr.i101, align 8
  call void @llvm.memcpy.p0.p0.i64(ptr align 8 %this1.i102, ptr align 8 %39, i64 8, i1 false)
  store ptr %retval.i98, ptr %this.addr.i103, align 8
  store ptr %ref.tmp.i, ptr %other.addr.i104, align 8
  %this1.i105 = load ptr, ptr %this.addr.i103, align 8
  %40 = load ptr, ptr %other.addr.i104, align 8
  call void @llvm.memcpy.p0.p0.i64(ptr align 8 %this1.i105, ptr align 8 %40, i64 8, i1 false)
  %41 = load ptr, ptr %retval.i98, align 8
  store ptr %41, ptr %retval.i, align 8
  %42 = load ptr, ptr %retval.i, align 8
  %coerce.dive41 = getelementptr inbounds %"class.v8::Local.6", ptr %agg.tmp39, i32 0, i32 0
  %coerce.dive42 = getelementptr inbounds %"class.v8::LocalBase.7", ptr %coerce.dive41, i32 0, i32 0
  %coerce.dive43 = getelementptr inbounds %"class.v8::IndirectHandleBase", ptr %coerce.dive42, i32 0, i32 0
  store ptr %42, ptr %coerce.dive43, align 8
  %coerce.dive44 = getelementptr inbounds %"class.v8::Local.6", ptr %agg.tmp39, i32 0, i32 0
  %coerce.dive45 = getelementptr inbounds %"class.v8::LocalBase.7", ptr %coerce.dive44, i32 0, i32 0
  %coerce.dive46 = getelementptr inbounds %"class.v8::IndirectHandleBase", ptr %coerce.dive45, i32 0, i32 0
  %43 = load ptr, ptr %coerce.dive46, align 8
  %call47 = call ptr @_ZN2v86Symbol3NewEPNS_7IsolateENS_5LocalINS_6StringEEE(ptr noundef %37, ptr %43)
  %coerce.dive48 = getelementptr inbounds %"class.v8::Local.45", ptr %agg.tmp38, i32 0, i32 0
  %coerce.dive49 = getelementptr inbounds %"class.v8::LocalBase.46", ptr %coerce.dive48, i32 0, i32 0
  %coerce.dive50 = getelementptr inbounds %"class.v8::IndirectHandleBase", ptr %coerce.dive49, i32 0, i32 0
  store ptr %call47, ptr %coerce.dive50, align 8
  %coerce.dive51 = getelementptr inbounds %"class.v8::Local.45", ptr %agg.tmp38, i32 0, i32 0
  %coerce.dive52 = getelementptr inbounds %"class.v8::LocalBase.46", ptr %coerce.dive51, i32 0, i32 0
  %coerce.dive53 = getelementptr inbounds %"class.v8::IndirectHandleBase", ptr %coerce.dive52, i32 0, i32 0
  %44 = load ptr, ptr %coerce.dive53, align 8
  store ptr %44, ptr %that.i63, align 8
  store ptr %agg.tmp37, ptr %this.addr.i64, align 8
  %this3.i65 = load ptr, ptr %this.addr.i64, align 8
  store ptr %this3.i65, ptr %this.addr.i93, align 8
  store ptr %that.i63, ptr %other.addr.i, align 8
  %this1.i94 = load ptr, ptr %this.addr.i93, align 8
  %45 = load ptr, ptr %other.addr.i, align 8
  call void @llvm.memcpy.p0.p0.i64(ptr align 8 %this1.i94, ptr align 8 %45, i64 8, i1 false)
  %coerce.dive54 = getelementptr inbounds %"class.v8::Local", ptr %agg.tmp37, i32 0, i32 0
  %coerce.dive55 = getelementptr inbounds %"class.v8::LocalBase", ptr %coerce.dive54, i32 0, i32 0
  %coerce.dive56 = getelementptr inbounds %"class.v8::IndirectHandleBase", ptr %coerce.dive55, i32 0, i32 0
  %46 = load ptr, ptr %coerce.dive56, align 8
  %call57 = call noundef ptr @_ZN6v8impl23JsValueFromV8LocalValueEN2v85LocalINS0_5ValueEEE(ptr %46)
  %47 = load ptr, ptr %result.addr, align 8
  store ptr %call57, ptr %47, align 8
  br label %if.end58

if.end58:                                         ; preds = %do.end36, %if.then10
  %48 = load ptr, ptr %env.addr, align 8
  %call59 = call noundef i32 @_Z21napi_clear_last_errorP10napi_env__(ptr noundef %48)
  store i32 %call59, ptr %retval, align 4
  br label %return

return:                                           ; preds = %if.end58, %if.then33, %if.then5, %if.then
  %49 = load i32, ptr %retval, align 4
  ret i32 %49
}