; Function Attrs: mustprogress nounwind uwtable
define dso_local noundef i32 @napi_create_symbol(ptr noundef %env, ptr noundef %description, ptr noundef writeonly %result) local_unnamed_addr #3 {
entry:
  %cmp = icmp eq ptr %env, null
  br i1 %cmp, label %return, label %do.end

do.end:                                           ; preds = %entry
  %module_api_version.i = getelementptr inbounds i8, ptr %env, i64 184
  %0 = load i32, ptr %module_api_version.i, align 8
  %cmp.i11 = icmp eq i32 %0, 2147483647
  br i1 %cmp.i11, label %land.lhs.true.i, label %_ZN10napi_env__13CheckGCAccessEv.exit

land.lhs.true.i:                                  ; preds = %do.end
  %in_gc_finalizer.i = getelementptr inbounds i8, ptr %env, i64 188
  %1 = load i8, ptr %in_gc_finalizer.i, align 4
  %2 = and i8 %1, 1
  %tobool.not.i = icmp eq i8 %2, 0
  br i1 %tobool.not.i, label %_ZN10napi_env__13CheckGCAccessEv.exit, label %if.then.i

if.then.i:                                        ; preds = %land.lhs.true.i
  tail call void @_ZN6v8impl12OnFatalErrorEPKcS1_(ptr noundef null, ptr noundef nonnull @.str.41) #28
  unreachable

_ZN10napi_env__13CheckGCAccessEv.exit:            ; preds = %do.end, %land.lhs.true.i
  %cmp4.not = icmp eq ptr %result, null
  br i1 %cmp4.not, label %if.then5, label %do.end7

if.then5:                                         ; preds = %_ZN10napi_env__13CheckGCAccessEv.exit
  %error_code1.i = getelementptr inbounds i8, ptr %env, i64 156
  store i32 1, ptr %error_code1.i, align 4
  %engine_error_code3.i = getelementptr inbounds i8, ptr %env, i64 152
  store i32 0, ptr %engine_error_code3.i, align 8
  %engine_reserved5.i = getelementptr inbounds i8, ptr %env, i64 144
  store ptr null, ptr %engine_reserved5.i, align 8
  br label %return

do.end7:                                          ; preds = %_ZN10napi_env__13CheckGCAccessEv.exit
  %isolate8 = getelementptr inbounds i8, ptr %env, i64 8
  %3 = load ptr, ptr %isolate8, align 8
  %cmp9 = icmp eq ptr %description, null
  br i1 %cmp9, label %if.then10, label %if.else

if.then10:                                        ; preds = %do.end7
  %call15 = tail call ptr @_ZN2v86Symbol3NewEPNS_7IsolateENS_5LocalINS_6StringEEE(ptr noundef %3, ptr null) #24
  br label %if.end58

if.else:                                          ; preds = %do.end7
  %4 = load i64, ptr %description, align 8
  %and.i = and i64 %4, 3
  %cmp.i77 = icmp eq i64 %and.i, 1
  br i1 %cmp.i77, label %if.end.i, label %if.then33

if.end.i:                                         ; preds = %if.else
  %sub.i88 = add nsw i64 %4, -1
  %5 = inttoptr i64 %sub.i88 to ptr
  %6 = load i64, ptr %5, align 8
  %sub.i = add i64 %6, 11
  %7 = inttoptr i64 %sub.i to ptr
  %8 = load i16, ptr %7, align 2
  %cmp.i = icmp ult i16 %8, 128
  br i1 %cmp.i, label %do.end36, label %if.then33

if.then33:                                        ; preds = %if.else, %if.end.i
  %error_code1.i13 = getelementptr inbounds i8, ptr %env, i64 156
  store i32 3, ptr %error_code1.i13, align 4
  %engine_error_code3.i14 = getelementptr inbounds i8, ptr %env, i64 152
  store i32 0, ptr %engine_error_code3.i14, align 8
  %engine_reserved5.i15 = getelementptr inbounds i8, ptr %env, i64 144
  store ptr null, ptr %engine_reserved5.i15, align 8
  br label %return

do.end36:                                         ; preds = %if.end.i
  %call47 = tail call ptr @_ZN2v86Symbol3NewEPNS_7IsolateENS_5LocalINS_6StringEEE(ptr noundef %3, ptr nonnull %description) #24
  br label %if.end58

if.end58:                                         ; preds = %do.end36, %if.then10
  %storemerge = phi ptr [ %call47, %do.end36 ], [ %call15, %if.then10 ]
  store ptr %storemerge, ptr %result, align 8
  %last_error.i = getelementptr inbounds i8, ptr %env, i64 136
  tail call void @llvm.memset.p0.i64(ptr noundef nonnull align 8 dereferenceable(24) %last_error.i, i8 0, i64 24, i1 false)
  br label %return

return:                                           ; preds = %entry, %if.end58, %if.then33, %if.then5
  %retval.0 = phi i32 [ 0, %if.end58 ], [ 3, %if.then33 ], [ 1, %if.then5 ], [ 1, %entry ]
  ret i32 %retval.0
}